; ModuleID = 'source-C-CXX/46/4547.c'
source_filename = "source-C-CXX/46/4547.c"
target datalayout = "e-m:e-p270:32:32-p271:32:32-p272:64:64-i64:64-f80:128-n8:16:32:64-S128"
target triple = "x86_64-pc-linux-gnu"

@.str = private unnamed_addr constant [3 x i8] c"%d\00", align 1

; Function Attrs: nofree nounwind sspstrong uwtable
define dso_local i32 @main() local_unnamed_addr #0 {
  %1 = alloca [100 x i32], align 16
  %2 = alloca i32, align 4
  %3 = bitcast [100 x i32]* %1 to i8*
  call void @llvm.lifetime.start.p0i8(i64 400, i8* nonnull %3) #4
  %4 = bitcast i32* %2 to i8*
  call void @llvm.lifetime.start.p0i8(i64 4, i8* nonnull %4) #4
  %5 = call i32 (i8*, ...) @__isoc99_scanf(i8* getelementptr inbounds ([3 x i8], [3 x i8]* @.str, i64 0, i64 0), i32* nonnull %2)
  %6 = load i32, i32* %2, align 4, !tbaa !5
  %7 = icmp sgt i32 %6, 0
  br i1 %7, label %13, label %58

8:                                                ; preds = %13
  %9 = icmp sgt i32 %18, 1
  br i1 %9, label %10, label %21

10:                                               ; preds = %8
  %11 = lshr i32 %18, 1
  %12 = zext i32 %11 to i64
  br label %23

13:                                               ; preds = %0, %13
  %14 = phi i64 [ %17, %13 ], [ 0, %0 ]
  %15 = getelementptr inbounds [100 x i32], [100 x i32]* %1, i64 0, i64 %14
  %16 = call i32 (i8*, ...) @__isoc99_scanf(i8* getelementptr inbounds ([3 x i8], [3 x i8]* @.str, i64 0, i64 0), i32* nonnull %15)
  %17 = add nuw nsw i64 %14, 1
  %18 = load i32, i32* %2, align 4, !tbaa !5
  %19 = sext i32 %18 to i64
  %20 = icmp slt i64 %17, %19
  br i1 %20, label %13, label %8, !llvm.loop !9

21:                                               ; preds = %23, %8
  %22 = icmp sgt i32 %18, 0
  br i1 %22, label %41, label %58

23:                                               ; preds = %10, %23
  %24 = phi i64 [ 0, %10 ], [ %38, %23 ]
  %25 = phi i32 [ 0, %10 ], [ %39, %23 ]
  %26 = xor i32 %25, -1
  %27 = add i32 %18, %26
  %28 = sext i32 %27 to i64
  %29 = getelementptr inbounds [100 x i32], [100 x i32]* %1, i64 0, i64 %28
  %30 = load i32, i32* %29, align 4, !tbaa !5
  %31 = getelementptr inbounds [100 x i32], [100 x i32]* %1, i64 0, i64 %24
  %32 = load i32, i32* %31, align 4, !tbaa !5
  %33 = xor i32 %32, %30
  store i32 %33, i32* %31, align 4, !tbaa !5
  %34 = load i32, i32* %29, align 4, !tbaa !5
  %35 = xor i32 %34, %33
  store i32 %35, i32* %29, align 4, !tbaa !5
  %36 = load i32, i32* %31, align 4, !tbaa !5
  %37 = xor i32 %36, %35
  store i32 %37, i32* %31, align 4, !tbaa !5
  %38 = add nuw nsw i64 %24, 1
  %39 = add nuw nsw i32 %25, 1
  %40 = icmp eq i64 %38, %12
  br i1 %40, label %21, label %23, !llvm.loop !11

41:                                               ; preds = %21, %53
  %42 = phi i64 [ %55, %53 ], [ 0, %21 ]
  %43 = getelementptr inbounds [100 x i32], [100 x i32]* %1, i64 0, i64 %42
  %44 = load i32, i32* %43, align 4, !tbaa !5
  %45 = call i32 (i8*, ...) @printf(i8* nonnull dereferenceable(1) getelementptr inbounds ([3 x i8], [3 x i8]* @.str, i64 0, i64 0), i32 %44)
  %46 = load i32, i32* %2, align 4, !tbaa !5
  %47 = add nsw i32 %46, -1
  %48 = zext i32 %47 to i64
  %49 = icmp eq i64 %42, %48
  br i1 %49, label %53, label %50

50:                                               ; preds = %41
  %51 = call i32 @putchar(i32 32)
  %52 = load i32, i32* %2, align 4, !tbaa !5
  br label %53

53:                                               ; preds = %41, %50
  %54 = phi i32 [ %46, %41 ], [ %52, %50 ]
  %55 = add nuw nsw i64 %42, 1
  %56 = sext i32 %54 to i64
  %57 = icmp slt i64 %55, %56
  br i1 %57, label %41, label %58, !llvm.loop !12

58:                                               ; preds = %53, %0, %21
  call void @llvm.lifetime.end.p0i8(i64 4, i8* nonnull %4) #4
  call void @llvm.lifetime.end.p0i8(i64 400, i8* nonnull %3) #4
  ret i32 0
}

; Function Attrs: argmemonly mustprogress nofree nosync nounwind willreturn
declare void @llvm.lifetime.start.p0i8(i64 immarg, i8* nocapture) #1

; Function Attrs: nofree nounwind
declare noundef i32 @__isoc99_scanf(i8* nocapture noundef readonly, ...) local_unnamed_addr #2

; Function Attrs: nofree nounwind
declare noundef i32 @printf(i8* nocapture noundef readonly, ...) local_unnamed_addr #2

; Function Attrs: argmemonly mustprogress nofree nosync nounwind willreturn
declare void @llvm.lifetime.end.p0i8(i64 immarg, i8* nocapture) #1

; Function Attrs: nofree nounwind
declare noundef i32 @putchar(i32 noundef) local_unnamed_addr #3


!llvm.module.flags = !{!0, !1, !2, !3}
!llvm.ident = !{!4}

!0 = !{i32 1, !"wchar_size", i32 4}
!1 = !{i32 7, !"PIC Level", i32 2}
!2 = !{i32 7, !"PIE Level", i32 2}
!3 = !{i32 7, !"uwtable", i32 1}
!4 = !{!"clang version 13.0.0"}
!5 = !{!6, !6, i64 0}
!6 = !{!"int", !7, i64 0}
!7 = !{!"omnipotent char", !8, i64 0}
!8 = !{!"Simple C/C++ TBAA"}
!9 = distinct !{!9, !10}
!10 = !{!"llvm.loop.mustprogress"}
!11 = distinct !{!11, !10}
!12 = distinct !{!12, !10}
